target datalayout = "e-m:e-p270:32:32-p271:32:32-p272:64:64-i64:64-i128:128-f80:128-n8:16:32:64-S128"
target triple = "x86_64-pc-linux-gnu"

; Function Attrs: nounwind uwtable
define hidden double @get_process_load() #0 {
  %1 = alloca double, align 8
  %2 = alloca double, align 8
  %3 = alloca double, align 8
  %4 = call double @get_cpuload_internal(i32 noundef -1, ptr noundef %3, i32 noundef 0)
  store double %4, ptr %2, align 8
  %5 = load double, ptr %2, align 8
  %6 = fcmp olt double %5, 0.000000e+00
  br i1 %6, label %7, label %8

7:                                                ; preds = %0
  store double -1.000000e+00, ptr %1, align 8
  br label %12

8:                                                ; preds = %0
  %9 = load double, ptr %2, align 8
  %10 = load double, ptr %3, align 8
  %11 = fadd double %9, %10
  store double %11, ptr %1, align 8
  br label %12

12:                                               ; preds = %8, %7
  %13 = load double, ptr %1, align 8
  ret double %13
}

; Function Attrs: nounwind uwtable
define double @Java_com_sun_management_internal_OperatingSystemImpl_getProcessCpuLoad0(ptr noundef %0, ptr noundef %1) #0 {
  %3 = alloca double, align 8
  %4 = alloca ptr, align 8
  %5 = alloca ptr, align 8
  store ptr %0, ptr %4, align 8
  store ptr %1, ptr %5, align 8
  %6 = call i32 @perfInit()
  %7 = icmp eq i32 %6, 0
  br i1 %7, label %8, label %10

8:                                                ; preds = %2
  %9 = call double @get_process_load()
  store double %9, ptr %3, align 8
  br label %11

10:                                               ; preds = %2
  store double -1.000000e+00, ptr %3, align 8
  br label %11

11:                                               ; preds = %10, %8
  %12 = load double, ptr %3, align 8
  ret double %12
}