; Function Attrs: nounwind uwtable
define double @Java_com_sun_management_internal_OperatingSystemImpl_getProcessCpuLoad0(ptr nocapture noundef readnone %0, ptr nocapture noundef readnone %1) local_unnamed_addr #0 {
  %3 = alloca double, align 8
  %4 = tail call i32 @perfInit()
  %5 = icmp eq i32 %4, 0
  br i1 %5, label %6, label %11

6:                                                ; preds = %2
  call void @llvm.lifetime.start.p0(i64 8, ptr nonnull %3)
  %7 = call fastcc double @get_cpuload_internal(i32 noundef -1, ptr noundef nonnull %3, i32 noundef 0)
  %8 = fcmp olt double %7, 0.000000e+00
  %9 = load double, ptr %3, align 8
  %10 = fadd double %7, %9
  %.0.i = select i1 %8, double -1.000000e+00, double %10
  call void @llvm.lifetime.end.p0(i64 8, ptr nonnull %3)
  br label %11

11:                                               ; preds = %2, %6
  %.0 = phi double [ %.0.i, %6 ], [ -1.000000e+00, %2 ]
  ret double %.0
}